; Function Attrs: nounwind uwtable
define noundef ptr @Gia_MiniAigSuperDerive(ptr noundef %0, i32 noundef %1) local_unnamed_addr #2 {
  %3 = tail call fastcc ptr @Mini_AigLoad(ptr noundef %0)
  %4 = tail call ptr @Gia_MiniAigSuperGates(ptr noundef %3)
  %5 = getelementptr i8, ptr %3, i64 4
  %.val.i = load i32, ptr %5, align 4, !tbaa !13
  %6 = icmp sgt i32 %.val.i, 3
  br i1 %6, label %.lr.ph.i, label %Mini_AigPiNum.exit.thread

Mini_AigPiNum.exit.thread:                        ; preds = %2
  %7 = tail call i32 @Gia_MiniAigSuperPreprocess(ptr nonnull poison, ptr noundef %4, i32 noundef 0, i32 noundef %1)
  br label %Mini_AigPiNum.exit23

.lr.ph.i:                                         ; preds = %2
  %8 = lshr i32 %.val.i, 1
  %9 = getelementptr i8, ptr %3, i64 16
  %.val.i.i = load ptr, ptr %9, align 8, !tbaa !3
  %wide.trip.count.i = zext nneg i32 %8 to i64
  br label %10

10:                                               ; preds = %10, %.lr.ph.i
  %indvars.iv.i = phi i64 [ 1, %.lr.ph.i ], [ %indvars.iv.next.i, %10 ]
  %.08.i = phi i32 [ 0, %.lr.ph.i ], [ %spec.select.i, %10 ]
  %.idx.i = shl nuw nsw i64 %indvars.iv.i, 3
  %11 = getelementptr inbounds nuw i8, ptr %.val.i.i, i64 %.idx.i
  %12 = load i32, ptr %11, align 4, !tbaa !10
  %.not.i = icmp eq i32 %12, 2147483647
  %13 = zext i1 %.not.i to i32
  %spec.select.i = add nuw nsw i32 %.08.i, %13
  %indvars.iv.next.i = add nuw nsw i64 %indvars.iv.i, 1
  %exitcond.not.i = icmp eq i64 %indvars.iv.next.i, %wide.trip.count.i
  br i1 %exitcond.not.i, label %Mini_AigPiNum.exit, label %10, !llvm.loop !149

Mini_AigPiNum.exit:                               ; preds = %10
  %14 = tail call i32 @Gia_MiniAigSuperPreprocess(ptr poison, ptr noundef %4, i32 noundef %spec.select.i, i32 noundef %1)
  br label %15

15:                                               ; preds = %15, %Mini_AigPiNum.exit
  %indvars.iv.i16 = phi i64 [ 1, %Mini_AigPiNum.exit ], [ %indvars.iv.next.i21, %15 ]
  %.08.i17 = phi i32 [ 0, %Mini_AigPiNum.exit ], [ %spec.select.i20, %15 ]
  %.idx.i18 = shl nuw nsw i64 %indvars.iv.i16, 3
  %16 = getelementptr inbounds nuw i8, ptr %.val.i.i, i64 %.idx.i18
  %17 = load i32, ptr %16, align 4, !tbaa !10
  %.not.i19 = icmp eq i32 %17, 2147483647
  %18 = zext i1 %.not.i19 to i32
  %spec.select.i20 = add nuw nsw i32 %.08.i17, %18
  %indvars.iv.next.i21 = add nuw nsw i64 %indvars.iv.i16, 1
  %exitcond.not.i22 = icmp eq i64 %indvars.iv.next.i21, %wide.trip.count.i
  br i1 %exitcond.not.i22, label %Mini_AigPiNum.exit23, label %15, !llvm.loop !149

Mini_AigPiNum.exit23:                             ; preds = %15, %Mini_AigPiNum.exit.thread
  %19 = phi i32 [ %7, %Mini_AigPiNum.exit.thread ], [ %14, %15 ]
  %.0.lcssa.i12 = phi i32 [ 0, %Mini_AigPiNum.exit.thread ], [ %spec.select.i20, %15 ]
  %20 = tail call ptr @Gia_MiniAigSuperDeriveGia(ptr noundef %4, i32 noundef %.0.lcssa.i12, i32 noundef %19)
  %21 = load i32, ptr %4, align 8, !tbaa !135
  %22 = icmp sgt i32 %21, 0
  %23 = getelementptr inbounds nuw i8, ptr %4, i64 8
  %.pre.i.i = load ptr, ptr %23, align 8, !tbaa !137
  br i1 %22, label %.lr.ph.i.i.preheader, label %._crit_edge.i.i

.lr.ph.i.i.preheader:                             ; preds = %Mini_AigPiNum.exit23
  %24 = zext nneg i32 %21 to i64
  br label %.lr.ph.i.i

.lr.ph.i.i:                                       ; preds = %.lr.ph.i.i.preheader, %28
  %indvars.iv.i.i = phi i64 [ %indvars.iv.next.i.i, %28 ], [ 0, %.lr.ph.i.i.preheader ]
  %25 = getelementptr inbounds nuw %struct.Vec_Int_t_, ptr %.pre.i.i, i64 %indvars.iv.i.i, i32 2
  %26 = load ptr, ptr %25, align 8, !tbaa !11
  %.not15.i.i = icmp eq ptr %26, null
  br i1 %.not15.i.i, label %28, label %27

27:                                               ; preds = %.lr.ph.i.i
  tail call void @free(ptr noundef nonnull %26) #25
  store ptr null, ptr %25, align 8, !tbaa !11
  br label %28

28:                                               ; preds = %27, %.lr.ph.i.i
  %indvars.iv.next.i.i = add nuw nsw i64 %indvars.iv.i.i, 1
  %exitcond.not = icmp eq i64 %indvars.iv.next.i.i, %24
  br i1 %exitcond.not, label %._crit_edge.thread.i.i, label %.lr.ph.i.i, !llvm.loop !150

._crit_edge.i.i:                                  ; preds = %Mini_AigPiNum.exit23
  %.not.i.i = icmp eq ptr %.pre.i.i, null
  br i1 %.not.i.i, label %Vec_WecFree.exit, label %._crit_edge.thread.i.i

._crit_edge.thread.i.i:                           ; preds = %28, %._crit_edge.i.i
  tail call void @free(ptr noundef nonnull %.pre.i.i) #25
  br label %Vec_WecFree.exit

Vec_WecFree.exit:                                 ; preds = %._crit_edge.i.i, %._crit_edge.thread.i.i
  tail call void @free(ptr noundef nonnull %4) #25
  %29 = getelementptr inbounds nuw i8, ptr %3, i64 16
  %30 = load ptr, ptr %29, align 8, !tbaa !3
  %.not.i24 = icmp eq ptr %30, null
  br i1 %.not.i24, label %Mini_AigStop.exit, label %31

31:                                               ; preds = %Vec_WecFree.exit
  tail call void @free(ptr noundef nonnull %30) #25
  br label %Mini_AigStop.exit

Mini_AigStop.exit:                                ; preds = %Vec_WecFree.exit, %31
  tail call void @free(ptr noundef nonnull %3) #25
  ret ptr %20
}